target datalayout = "e-m:e-p270:32:32-p271:32:32-p272:64:64-i64:64-i128:128-f80:128-n8:16:32:64-S128"
target triple = "x86_64-pc-linux-gnu"

%struct.H5O_shared_t = type { i32, ptr, i32, %union.anon }
%union.anon = type { %struct.H5O_mesg_loc_t }
%struct.H5O_mesg_loc_t = type { i32, i64 }
%struct.H5O_fill_t = type { %struct.H5O_shared_t, i32, ptr, i64, ptr, i32, i32, i8 }

@H5O_fill_ver_bounds = constant [6 x i32] [i32 1, i32 3, i32 3, i32 3, i32 3, i32 3], align 16
@.str.3 = private unnamed_addr constant [101 x i8] c"generated/home/dtcxzyw/WorkSpace/Projects/compilers/llvm-opt-benchmark/bench/hdf5/hdf5/src/H5Ofill.c\00", align 1
@H5E_OHDR_g = external global i64, align 8
@__func__.H5O_fill_set_version = private unnamed_addr constant [21 x i8] c"H5O_fill_set_version\00", align 1
@H5E_BADRANGE_g = external global i64, align 8
@.str.9 = private unnamed_addr constant [38 x i8] c"Filter pipeline version out of bounds\00", align 1

; Function Attrs: nounwind uwtable
define i32 @H5O_fill_set_version(ptr noundef %0, ptr noundef %1) #0 {
  %3 = alloca ptr, align 8
  %4 = alloca ptr, align 8
  %5 = alloca i32, align 4
  %6 = alloca i32, align 4
  %7 = alloca i8, align 1
  store ptr %0, ptr %3, align 8
  store ptr %1, ptr %4, align 8
  store i32 0, ptr %6, align 4
  store i8 0, ptr %7, align 1
  %8 = load ptr, ptr %4, align 8
  %9 = getelementptr inbounds %struct.H5O_fill_t, ptr %8, i32 0, i32 1
  %10 = load i32, ptr %9, align 8
  %11 = load ptr, ptr %3, align 8
  %12 = call i32 @H5F_get_low_bound(ptr noundef %11)
  %13 = sext i32 %12 to i64
  %14 = getelementptr inbounds [6 x i32], ptr @H5O_fill_ver_bounds, i64 0, i64 %13
  %15 = load i32, ptr %14, align 4
  %16 = icmp ugt i32 %10, %15
  br i1 %16, label %17, label %21

17:                                               ; preds = %2
  %18 = load ptr, ptr %4, align 8
  %19 = getelementptr inbounds %struct.H5O_fill_t, ptr %18, i32 0, i32 1
  %20 = load i32, ptr %19, align 8
  br label %27

21:                                               ; preds = %2
  %22 = load ptr, ptr %3, align 8
  %23 = call i32 @H5F_get_low_bound(ptr noundef %22)
  %24 = sext i32 %23 to i64
  %25 = getelementptr inbounds [6 x i32], ptr @H5O_fill_ver_bounds, i64 0, i64 %24
  %26 = load i32, ptr %25, align 4
  br label %27

27:                                               ; preds = %21, %17
  %28 = phi i32 [ %20, %17 ], [ %26, %21 ]
  store i32 %28, ptr %5, align 4
  %29 = load i32, ptr %5, align 4
  %30 = load ptr, ptr %3, align 8
  %31 = call i32 @H5F_get_high_bound(ptr noundef %30)
  %32 = sext i32 %31 to i64
  %33 = getelementptr inbounds [6 x i32], ptr @H5O_fill_ver_bounds, i64 0, i64 %32
  %34 = load i32, ptr %33, align 4
  %35 = icmp ugt i32 %29, %34
  br i1 %35, label %36, label %51

36:                                               ; preds = %27
  br label %37

37:                                               ; preds = %36
  br label %38

38:                                               ; preds = %37
  br label %39

39:                                               ; preds = %38
  %40 = load i64, ptr @H5E_OHDR_g, align 8
  %41 = load i64, ptr @H5E_BADRANGE_g, align 8
  %42 = call i32 (ptr, ptr, i32, i64, i64, ptr, ...) @H5E_printf_stack(ptr noundef @.str.3, ptr noundef @__func__.H5O_fill_set_version, i32 noundef 1039, i64 noundef %40, i64 noundef %41, ptr noundef @.str.9)
  br label %43

43:                                               ; preds = %39
  store i8 1, ptr %7, align 1
  %44 = load i8, ptr %7, align 1
  %45 = trunc i8 %44 to i1
  %46 = zext i1 %45 to i8
  store i8 %46, ptr %7, align 1
  br label %47

47:                                               ; preds = %43
  br label %48

48:                                               ; preds = %47
  store i32 -1, ptr %6, align 4
  br label %55

49:                                               ; No predecessors!
  br label %50

50:                                               ; preds = %49
  br label %51

51:                                               ; preds = %50, %27
  %52 = load i32, ptr %5, align 4
  %53 = load ptr, ptr %4, align 8
  %54 = getelementptr inbounds %struct.H5O_fill_t, ptr %53, i32 0, i32 1
  store i32 %52, ptr %54, align 8
  br label %55

55:                                               ; preds = %51, %48
  %56 = load i32, ptr %6, align 4
  ret i32 %56
}